target datalayout = "e-m:e-p270:32:32-p271:32:32-p272:64:64-i64:64-i128:128-f80:128-n8:16:32:64-S128"
target triple = "x86_64-pc-linux-gnu"

%struct.EState = type { ptr, i32, i32, i32, ptr, ptr, ptr, i32, ptr, ptr, ptr, ptr, i32, i32, i32, i32, i32, i32, i32, i32, i32, i32, [256 x i8], [256 x i8], i32, i32, i32, i32, i32, i32, i32, i32, [258 x i32], [18002 x i8], [18002 x i8], [6 x [258 x i8]], [6 x [258 x i32]], [6 x [258 x i32]], [258 x [4 x i32]] }

; Function Attrs: inlinehint nounwind uwtable
define internal void @bsW(ptr noundef %0, i32 noundef %1, i32 noundef %2) #3 {
  %4 = alloca ptr, align 8
  %5 = alloca i32, align 4
  %6 = alloca i32, align 4
  store ptr %0, ptr %4, align 8, !tbaa !3
  store i32 %1, ptr %5, align 4, !tbaa !27
  store i32 %2, ptr %6, align 4, !tbaa !27
  br label %7

7:                                                ; preds = %12, %3
  %8 = load ptr, ptr %4, align 8, !tbaa !3
  %9 = getelementptr inbounds nuw %struct.EState, ptr %8, i32 0, i32 25
  %10 = load i32, ptr %9, align 4, !tbaa !7
  %11 = icmp sge i32 %10, 8
  br i1 %11, label %12, label %38

12:                                               ; preds = %7
  %13 = load ptr, ptr %4, align 8, !tbaa !3
  %14 = getelementptr inbounds nuw %struct.EState, ptr %13, i32 0, i32 24
  %15 = load i32, ptr %14, align 8, !tbaa !13
  %16 = lshr i32 %15, 24
  %17 = trunc i32 %16 to i8
  %18 = load ptr, ptr %4, align 8, !tbaa !3
  %19 = getelementptr inbounds nuw %struct.EState, ptr %18, i32 0, i32 11
  %20 = load ptr, ptr %19, align 8, !tbaa !24
  %21 = load ptr, ptr %4, align 8, !tbaa !3
  %22 = getelementptr inbounds nuw %struct.EState, ptr %21, i32 0, i32 19
  %23 = load i32, ptr %22, align 4, !tbaa !19
  %24 = sext i32 %23 to i64
  %25 = getelementptr inbounds i8, ptr %20, i64 %24
  store i8 %17, ptr %25, align 1, !tbaa !14
  %26 = load ptr, ptr %4, align 8, !tbaa !3
  %27 = getelementptr inbounds nuw %struct.EState, ptr %26, i32 0, i32 19
  %28 = load i32, ptr %27, align 4, !tbaa !19
  %29 = add nsw i32 %28, 1
  store i32 %29, ptr %27, align 4, !tbaa !19
  %30 = load ptr, ptr %4, align 8, !tbaa !3
  %31 = getelementptr inbounds nuw %struct.EState, ptr %30, i32 0, i32 24
  %32 = load i32, ptr %31, align 8, !tbaa !13
  %33 = shl i32 %32, 8
  store i32 %33, ptr %31, align 8, !tbaa !13
  %34 = load ptr, ptr %4, align 8, !tbaa !3
  %35 = getelementptr inbounds nuw %struct.EState, ptr %34, i32 0, i32 25
  %36 = load i32, ptr %35, align 4, !tbaa !7
  %37 = sub nsw i32 %36, 8
  store i32 %37, ptr %35, align 4, !tbaa !7
  br label %7, !llvm.loop !28

38:                                               ; preds = %7
  %39 = load i32, ptr %6, align 4, !tbaa !27
  %40 = load ptr, ptr %4, align 8, !tbaa !3
  %41 = getelementptr inbounds nuw %struct.EState, ptr %40, i32 0, i32 25
  %42 = load i32, ptr %41, align 4, !tbaa !7
  %43 = sub nsw i32 32, %42
  %44 = load i32, ptr %5, align 4, !tbaa !27
  %45 = sub nsw i32 %43, %44
  %46 = shl i32 %39, %45
  %47 = load ptr, ptr %4, align 8, !tbaa !3
  %48 = getelementptr inbounds nuw %struct.EState, ptr %47, i32 0, i32 24
  %49 = load i32, ptr %48, align 8, !tbaa !13
  %50 = or i32 %49, %46
  store i32 %50, ptr %48, align 8, !tbaa !13
  %51 = load i32, ptr %5, align 4, !tbaa !27
  %52 = load ptr, ptr %4, align 8, !tbaa !3
  %53 = getelementptr inbounds nuw %struct.EState, ptr %52, i32 0, i32 25
  %54 = load i32, ptr %53, align 4, !tbaa !7
  %55 = add nsw i32 %54, %51
  store i32 %55, ptr %53, align 4, !tbaa !7
  ret void
}

; Function Attrs: nounwind uwtable
define internal void @bsPutUInt32(ptr noundef %0, i32 noundef %1) #0 {
  %3 = alloca ptr, align 8
  %4 = alloca i32, align 4
  store ptr %0, ptr %3, align 8, !tbaa !3
  store i32 %1, ptr %4, align 4, !tbaa !27
  %5 = load ptr, ptr %3, align 8, !tbaa !3
  %6 = load i32, ptr %4, align 4, !tbaa !27
  %7 = lshr i32 %6, 24
  %8 = zext i32 %7 to i64
  %9 = and i64 %8, 255
  %10 = trunc i64 %9 to i32
  call void @bsW(ptr noundef %5, i32 noundef 8, i32 noundef %10)
  %11 = load ptr, ptr %3, align 8, !tbaa !3
  %12 = load i32, ptr %4, align 4, !tbaa !27
  %13 = lshr i32 %12, 16
  %14 = zext i32 %13 to i64
  %15 = and i64 %14, 255
  %16 = trunc i64 %15 to i32
  call void @bsW(ptr noundef %11, i32 noundef 8, i32 noundef %16)
  %17 = load ptr, ptr %3, align 8, !tbaa !3
  %18 = load i32, ptr %4, align 4, !tbaa !27
  %19 = lshr i32 %18, 8
  %20 = zext i32 %19 to i64
  %21 = and i64 %20, 255
  %22 = trunc i64 %21 to i32
  call void @bsW(ptr noundef %17, i32 noundef 8, i32 noundef %22)
  %23 = load ptr, ptr %3, align 8, !tbaa !3
  %24 = load i32, ptr %4, align 4, !tbaa !27
  %25 = zext i32 %24 to i64
  %26 = and i64 %25, 255
  %27 = trunc i64 %26 to i32
  call void @bsW(ptr noundef %23, i32 noundef 8, i32 noundef %27)
  ret void
}