; Function Attrs: nofree norecurse nosync nounwind memory(write, argmem: readwrite, inaccessiblemem: none) uwtable
define internal fastcc void @bsPutUInt32(ptr noundef captures(none) %0, i32 noundef %1) unnamed_addr #4 {
  %3 = lshr i32 %1, 24
  %4 = getelementptr inbounds nuw i8, ptr %0, i64 644
  %5 = load i32, ptr %4, align 4, !tbaa !3
  %6 = icmp sgt i32 %5, 7
  %7 = getelementptr inbounds nuw i8, ptr %0, i64 640
  br i1 %6, label %.lr.ph.i, label %.._crit_edge_crit_edge.i

.._crit_edge_crit_edge.i:                         ; preds = %2
  %.pre16.i = load i32, ptr %7, align 8, !tbaa !12
  %8 = add nsw i32 %5, 8
  br label %bsW.exit

.lr.ph.i:                                         ; preds = %2
  %9 = getelementptr inbounds nuw i8, ptr %0, i64 80
  %10 = getelementptr inbounds nuw i8, ptr %0, i64 116
  %.pre.i = load i32, ptr %7, align 8, !tbaa !12
  %.pre15.i = load i32, ptr %10, align 4, !tbaa !17
  br label %11

11:                                               ; preds = %11, %.lr.ph.i
  %12 = phi i32 [ %.pre15.i, %.lr.ph.i ], [ %20, %11 ]
  %13 = phi i32 [ %.pre.i, %.lr.ph.i ], [ %22, %11 ]
  %14 = lshr i32 %13, 24
  %15 = trunc nuw i32 %14 to i8
  %16 = load ptr, ptr %9, align 8, !tbaa !22
  %17 = sext i32 %12 to i64
  %18 = getelementptr inbounds i8, ptr %16, i64 %17
  store i8 %15, ptr %18, align 1, !tbaa !23
  %19 = load i32, ptr %10, align 4, !tbaa !17
  %20 = add nsw i32 %19, 1
  store i32 %20, ptr %10, align 4, !tbaa !17
  %21 = load i32, ptr %7, align 8, !tbaa !12
  %22 = shl i32 %21, 8
  store i32 %22, ptr %7, align 8, !tbaa !12
  %23 = load i32, ptr %4, align 4, !tbaa !3
  %24 = add nsw i32 %23, -8
  store i32 %24, ptr %4, align 4, !tbaa !3
  %25 = icmp sgt i32 %23, 15
  br i1 %25, label %11, label %bsW.exit, !llvm.loop !24

bsW.exit:                                         ; preds = %11, %.._crit_edge_crit_edge.i
  %26 = phi i32 [ %.pre16.i, %.._crit_edge_crit_edge.i ], [ %22, %11 ]
  %.lcssa.i = phi i32 [ %8, %.._crit_edge_crit_edge.i ], [ %23, %11 ]
  %27 = sub i32 32, %.lcssa.i
  %28 = shl i32 %3, %27
  %29 = or i32 %28, %26
  store i32 %29, ptr %7, align 8, !tbaa !12
  store i32 %.lcssa.i, ptr %4, align 4, !tbaa !3
  %30 = lshr i32 %1, 16
  %31 = and i32 %30, 255
  %32 = icmp sgt i32 %.lcssa.i, 7
  br i1 %32, label %.lr.ph.i10, label %bsW.exit13

.lr.ph.i10:                                       ; preds = %bsW.exit
  %33 = getelementptr inbounds nuw i8, ptr %0, i64 80
  %34 = getelementptr inbounds nuw i8, ptr %0, i64 116
  %.pre15.i12 = load i32, ptr %34, align 4, !tbaa !17
  br label %35

35:                                               ; preds = %35, %.lr.ph.i10
  %36 = phi i32 [ %.pre15.i12, %.lr.ph.i10 ], [ %44, %35 ]
  %37 = phi i32 [ %29, %.lr.ph.i10 ], [ %46, %35 ]
  %38 = lshr i32 %37, 24
  %39 = trunc nuw i32 %38 to i8
  %40 = load ptr, ptr %33, align 8, !tbaa !22
  %41 = sext i32 %36 to i64
  %42 = getelementptr inbounds i8, ptr %40, i64 %41
  store i8 %39, ptr %42, align 1, !tbaa !23
  %43 = load i32, ptr %34, align 4, !tbaa !17
  %44 = add nsw i32 %43, 1
  store i32 %44, ptr %34, align 4, !tbaa !17
  %45 = load i32, ptr %7, align 8, !tbaa !12
  %46 = shl i32 %45, 8
  store i32 %46, ptr %7, align 8, !tbaa !12
  %47 = load i32, ptr %4, align 4, !tbaa !3
  %48 = add nsw i32 %47, -8
  store i32 %48, ptr %4, align 4, !tbaa !3
  %49 = icmp sgt i32 %47, 15
  br i1 %49, label %35, label %bsW.exit13, !llvm.loop !24

bsW.exit13:                                       ; preds = %35, %bsW.exit
  %50 = phi i32 [ %29, %bsW.exit ], [ %46, %35 ]
  %.lcssa.i9 = phi i32 [ %.lcssa.i, %bsW.exit ], [ %48, %35 ]
  %51 = add nsw i32 %.lcssa.i9, 8
  %52 = sub i32 24, %.lcssa.i9
  %53 = shl i32 %31, %52
  %54 = or i32 %53, %50
  store i32 %54, ptr %7, align 8, !tbaa !12
  store i32 %51, ptr %4, align 4, !tbaa !3
  %55 = lshr i32 %1, 8
  %56 = and i32 %55, 255
  %57 = icmp sgt i32 %.lcssa.i9, -1
  br i1 %57, label %.lr.ph.i17, label %bsW.exit20

.lr.ph.i17:                                       ; preds = %bsW.exit13
  %58 = getelementptr inbounds nuw i8, ptr %0, i64 80
  %59 = getelementptr inbounds nuw i8, ptr %0, i64 116
  %.pre15.i19 = load i32, ptr %59, align 4, !tbaa !17
  br label %60

60:                                               ; preds = %60, %.lr.ph.i17
  %61 = phi i32 [ %.pre15.i19, %.lr.ph.i17 ], [ %69, %60 ]
  %62 = phi i32 [ %54, %.lr.ph.i17 ], [ %71, %60 ]
  %63 = lshr i32 %62, 24
  %64 = trunc nuw i32 %63 to i8
  %65 = load ptr, ptr %58, align 8, !tbaa !22
  %66 = sext i32 %61 to i64
  %67 = getelementptr inbounds i8, ptr %65, i64 %66
  store i8 %64, ptr %67, align 1, !tbaa !23
  %68 = load i32, ptr %59, align 4, !tbaa !17
  %69 = add nsw i32 %68, 1
  store i32 %69, ptr %59, align 4, !tbaa !17
  %70 = load i32, ptr %7, align 8, !tbaa !12
  %71 = shl i32 %70, 8
  store i32 %71, ptr %7, align 8, !tbaa !12
  %72 = load i32, ptr %4, align 4, !tbaa !3
  %73 = add nsw i32 %72, -8
  store i32 %73, ptr %4, align 4, !tbaa !3
  %74 = icmp sgt i32 %72, 15
  br i1 %74, label %60, label %bsW.exit20, !llvm.loop !24

bsW.exit20:                                       ; preds = %60, %bsW.exit13
  %75 = phi i32 [ %54, %bsW.exit13 ], [ %71, %60 ]
  %.lcssa.i16 = phi i32 [ %51, %bsW.exit13 ], [ %73, %60 ]
  %76 = add nsw i32 %.lcssa.i16, 8
  %77 = sub i32 24, %.lcssa.i16
  %78 = shl i32 %56, %77
  %79 = or i32 %78, %75
  store i32 %79, ptr %7, align 8, !tbaa !12
  store i32 %76, ptr %4, align 4, !tbaa !3
  %80 = icmp sgt i32 %.lcssa.i16, -1
  br i1 %80, label %.lr.ph.i24, label %bsW.exit27

.lr.ph.i24:                                       ; preds = %bsW.exit20
  %81 = getelementptr inbounds nuw i8, ptr %0, i64 80
  %82 = getelementptr inbounds nuw i8, ptr %0, i64 116
  %.pre15.i26 = load i32, ptr %82, align 4, !tbaa !17
  br label %83

83:                                               ; preds = %83, %.lr.ph.i24
  %84 = phi i32 [ %.pre15.i26, %.lr.ph.i24 ], [ %92, %83 ]
  %85 = phi i32 [ %79, %.lr.ph.i24 ], [ %94, %83 ]
  %86 = lshr i32 %85, 24
  %87 = trunc nuw i32 %86 to i8
  %88 = load ptr, ptr %81, align 8, !tbaa !22
  %89 = sext i32 %84 to i64
  %90 = getelementptr inbounds i8, ptr %88, i64 %89
  store i8 %87, ptr %90, align 1, !tbaa !23
  %91 = load i32, ptr %82, align 4, !tbaa !17
  %92 = add nsw i32 %91, 1
  store i32 %92, ptr %82, align 4, !tbaa !17
  %93 = load i32, ptr %7, align 8, !tbaa !12
  %94 = shl i32 %93, 8
  store i32 %94, ptr %7, align 8, !tbaa !12
  %95 = load i32, ptr %4, align 4, !tbaa !3
  %96 = add nsw i32 %95, -8
  store i32 %96, ptr %4, align 4, !tbaa !3
  %97 = icmp sgt i32 %95, 15
  br i1 %97, label %83, label %bsW.exit27, !llvm.loop !24

bsW.exit27:                                       ; preds = %83, %bsW.exit20
  %98 = phi i32 [ %79, %bsW.exit20 ], [ %94, %83 ]
  %.lcssa.i23 = phi i32 [ %76, %bsW.exit20 ], [ %96, %83 ]
  %99 = and i32 %1, 255
  %100 = add nsw i32 %.lcssa.i23, 8
  %101 = sub i32 24, %.lcssa.i23
  %102 = shl i32 %99, %101
  %103 = or i32 %102, %98
  store i32 %103, ptr %7, align 8, !tbaa !12
  store i32 %100, ptr %4, align 4, !tbaa !3
  ret void
}